target datalayout = "e-m:e-p270:32:32-p271:32:32-p272:64:64-i64:64-i128:128-f80:128-n8:16:32:64-S128"
target triple = "x86_64-pc-linux-gnu"

@PyExc_TypeError = external global ptr, align 8
@.str.10 = private unnamed_addr constant [44 x i8] c"my_double_sum expected 2 arguments, got %zd\00", align 1

; Function Attrs: nounwind uwtable
define internal double @my_double_sum_impl(ptr noundef %0, double noundef %1, double noundef %2) #0 {
  %4 = alloca ptr, align 8
  %5 = alloca double, align 8
  %6 = alloca double, align 8
  store ptr %0, ptr %4, align 8, !tbaa !3
  store double %1, ptr %5, align 8, !tbaa !16
  store double %2, ptr %6, align 8, !tbaa !16
  %7 = load double, ptr %5, align 8, !tbaa !16
  %8 = load double, ptr %6, align 8, !tbaa !16
  %9 = fadd double %7, %8
  ret double %9
}

; Function Attrs: nounwind uwtable
define internal ptr @my_double_sum(ptr noundef %0, ptr noundef %1, i64 noundef %2) #0 {
  %4 = alloca ptr, align 8
  %5 = alloca ptr, align 8
  %6 = alloca i64, align 8
  %7 = alloca ptr, align 8
  %8 = alloca double, align 8
  %9 = alloca double, align 8
  %10 = alloca double, align 8
  store ptr %0, ptr %4, align 8, !tbaa !3
  store ptr %1, ptr %5, align 8, !tbaa !10
  store i64 %2, ptr %6, align 8, !tbaa !12
  call void @llvm.lifetime.start.p0(i64 8, ptr %7) #3
  store ptr null, ptr %7, align 8, !tbaa !3
  call void @llvm.lifetime.start.p0(i64 8, ptr %8) #3
  call void @llvm.lifetime.start.p0(i64 8, ptr %9) #3
  call void @llvm.lifetime.start.p0(i64 8, ptr %10) #3
  %11 = load i64, ptr %6, align 8, !tbaa !12
  %12 = icmp ne i64 %11, 2
  br i1 %12, label %13, label %17

13:                                               ; preds = %3
  %14 = load ptr, ptr @PyExc_TypeError, align 8, !tbaa !3
  %15 = load i64, ptr %6, align 8, !tbaa !12
  %16 = call ptr (ptr, ptr, ...) @PyErr_Format(ptr noundef %14, ptr noundef @.str.10, i64 noundef %15)
  br label %53

17:                                               ; preds = %3
  %18 = load ptr, ptr %5, align 8, !tbaa !10
  %19 = getelementptr ptr, ptr %18, i64 0
  %20 = load ptr, ptr %19, align 8, !tbaa !3
  %21 = call double @PyFloat_AsDouble(ptr noundef %20)
  store double %21, ptr %8, align 8, !tbaa !16
  %22 = load double, ptr %8, align 8, !tbaa !16
  %23 = fcmp oeq double %22, -1.000000e+00
  br i1 %23, label %24, label %28

24:                                               ; preds = %17
  %25 = call ptr @PyErr_Occurred()
  %26 = icmp ne ptr %25, null
  br i1 %26, label %27, label %28

27:                                               ; preds = %24
  br label %53

28:                                               ; preds = %24, %17
  %29 = load ptr, ptr %5, align 8, !tbaa !10
  %30 = getelementptr ptr, ptr %29, i64 1
  %31 = load ptr, ptr %30, align 8, !tbaa !3
  %32 = call double @PyFloat_AsDouble(ptr noundef %31)
  store double %32, ptr %9, align 8, !tbaa !16
  %33 = load double, ptr %9, align 8, !tbaa !16
  %34 = fcmp oeq double %33, -1.000000e+00
  br i1 %34, label %35, label %39

35:                                               ; preds = %28
  %36 = call ptr @PyErr_Occurred()
  %37 = icmp ne ptr %36, null
  br i1 %37, label %38, label %39

38:                                               ; preds = %35
  br label %53

39:                                               ; preds = %35, %28
  %40 = load ptr, ptr %4, align 8, !tbaa !3
  %41 = load double, ptr %8, align 8, !tbaa !16
  %42 = load double, ptr %9, align 8, !tbaa !16
  %43 = call double @my_double_sum_impl(ptr noundef %40, double noundef %41, double noundef %42)
  store double %43, ptr %10, align 8, !tbaa !16
  %44 = load double, ptr %10, align 8, !tbaa !16
  %45 = fcmp oeq double %44, -1.000000e+00
  br i1 %45, label %46, label %50

46:                                               ; preds = %39
  %47 = call ptr @PyErr_Occurred()
  %48 = icmp ne ptr %47, null
  br i1 %48, label %49, label %50

49:                                               ; preds = %46
  br label %53

50:                                               ; preds = %46, %39
  %51 = load double, ptr %10, align 8, !tbaa !16
  %52 = call ptr @PyFloat_FromDouble(double noundef %51)
  store ptr %52, ptr %7, align 8, !tbaa !3
  br label %53

53:                                               ; preds = %50, %49, %38, %27, %13
  %54 = load ptr, ptr %7, align 8, !tbaa !3
  call void @llvm.lifetime.end.p0(i64 8, ptr %10) #3
  call void @llvm.lifetime.end.p0(i64 8, ptr %9) #3
  call void @llvm.lifetime.end.p0(i64 8, ptr %8) #3
  call void @llvm.lifetime.end.p0(i64 8, ptr %7) #3
  ret ptr %54
}