; Function Attrs: nounwind uwtable
define internal ptr @my_double_sum(ptr readnone captures(none) %0, ptr noundef readonly captures(none) %1, i64 noundef %2) #0 {
  %.not = icmp eq i64 %2, 2
  br i1 %.not, label %7, label %4

4:                                                ; preds = %3
  %5 = load ptr, ptr @PyExc_TypeError, align 8, !tbaa !3
  %6 = tail call ptr (ptr, ptr, ...) @PyErr_Format(ptr noundef %5, ptr noundef nonnull @.str.10, i64 noundef %2) #2
  br label %27

7:                                                ; preds = %3
  %8 = load ptr, ptr %1, align 8, !tbaa !3
  %9 = tail call double @PyFloat_AsDouble(ptr noundef %8) #2
  %10 = fcmp oeq double %9, -1.000000e+00
  br i1 %10, label %11, label %13

11:                                               ; preds = %7
  %12 = tail call ptr @PyErr_Occurred() #2
  %.not12 = icmp eq ptr %12, null
  br i1 %.not12, label %13, label %27

13:                                               ; preds = %11, %7
  %14 = getelementptr i8, ptr %1, i64 8
  %15 = load ptr, ptr %14, align 8, !tbaa !3
  %16 = tail call double @PyFloat_AsDouble(ptr noundef %15) #2
  %17 = fcmp oeq double %16, -1.000000e+00
  br i1 %17, label %18, label %20

18:                                               ; preds = %13
  %19 = tail call ptr @PyErr_Occurred() #2
  %.not13 = icmp eq ptr %19, null
  br i1 %.not13, label %20, label %27

20:                                               ; preds = %18, %13
  %21 = fadd double %9, %16
  %22 = fcmp oeq double %21, -1.000000e+00
  br i1 %22, label %23, label %25

23:                                               ; preds = %20
  %24 = tail call ptr @PyErr_Occurred() #2
  %.not14 = icmp eq ptr %24, null
  br i1 %.not14, label %25, label %27

25:                                               ; preds = %23, %20
  %26 = tail call ptr @PyFloat_FromDouble(double noundef %21) #2
  br label %27

27:                                               ; preds = %23, %18, %11, %25, %4
  %.0 = phi ptr [ null, %4 ], [ null, %11 ], [ null, %18 ], [ null, %23 ], [ %26, %25 ]
  ret ptr %.0
}